; generated by Component: ARM Compiler 5.06 update 4 (build 422) Tool: ArmCC [4d3604]
; commandline ArmCC [--c99 --list --split_sections --debug -c --asm --interleave -o.\flash\obj\oled_test.o --asm_dir=.\Flash\List\ --list_dir=.\Flash\List\ --depend=.\flash\obj\oled_test.d --cpu=Cortex-M3 --apcs=interwork -O3 --diag_suppress=9931,870 -I..\..\Libraries\CMSIS\Device\ST\STM32F10x\Include -I..\..\Libraries\STM32F10x_StdPeriph_Driver\inc -I..\..\Libraries\STM32_USB-FS-Device_Driver\inc -I..\..\Libraries\CMSIS\Include -I..\..\User\bsp -I..\..\User\bsp\inc -I..\..\User\app\inc -I..\..\User\fonts -I..\..\User\images -I..\..\User\uIP\uip -I..\..\User\uIP\http -I..\..\User\uIP\dm9000 -I..\..\User\FatFS\src -I..\..\User\usb_mass -I..\..\User\CH376\inc -I.\RTE\_Flash -ID:\Keil\ARM\PACK\ARM\CMSIS\5.0.1\CMSIS\Include -ID:\Keil\ARM\PACK\Keil\STM32F1xx_DFP\2.1.0\Device\Include -D__MICROLIB -D__UVISION_VERSION=523 -D_RTE_ -DSTM32F10X_HD -DUSE_STDPERIPH_DRIVER -DSTM32F10X_HD --omf_browse=.\flash\obj\oled_test.crf ..\..\User\app\src\oled_test.c]
                          THUMB

                          AREA ||i.DispFormOLED||, CODE, READONLY, ALIGN=2

                  DispFormOLED PROC
;;;459    */
;;;460    static void DispFormOLED(void)
000000  b510              PUSH     {r4,lr}
;;;461    {
;;;462    	LCD_ClrScr(CL_BTN_FACE);
000002  f64e705b          MOV      r0,#0xef5b
000006  f7fffffe          BL       LCD_ClrScr
;;;463    
;;;464    	/* 分组框 */
;;;465    	LCD_DrawGroupBox(&FormOLED->Box1);
00000a  4c15              LDR      r4,|L1.96|
00000c  6820              LDR      r0,[r4,#0]  ; FormOLED
00000e  3020              ADDS     r0,r0,#0x20
000010  f7fffffe          BL       LCD_DrawGroupBox
;;;466    
;;;467    	/* 静态标签 */
;;;468    	LCD_DrawLabel(&FormOLED->Label1);
000014  6820              LDR      r0,[r4,#0]  ; FormOLED
000016  3034              ADDS     r0,r0,#0x34
000018  f7fffffe          BL       LCD_DrawLabel
;;;469    	LCD_DrawLabel(&FormOLED->Label3);
00001c  6820              LDR      r0,[r4,#0]  ; FormOLED
00001e  305c              ADDS     r0,r0,#0x5c
000020  f7fffffe          BL       LCD_DrawLabel
;;;470    	LCD_DrawLabel(&FormOLED->Label5);
000024  6820              LDR      r0,[r4,#0]  ; FormOLED
000026  3084              ADDS     r0,r0,#0x84
000028  f7fffffe          BL       LCD_DrawLabel
;;;471    	LCD_DrawLabel(&FormOLED->Label7);
00002c  6820              LDR      r0,[r4,#0]  ; FormOLED
00002e  30ac              ADDS     r0,r0,#0xac
000030  f7fffffe          BL       LCD_DrawLabel
;;;472    
;;;473    	/* 动态标签 */
;;;474    	LCD_DrawLabel(&FormOLED->Label2);
000034  6820              LDR      r0,[r4,#0]  ; FormOLED
000036  3048              ADDS     r0,r0,#0x48
000038  f7fffffe          BL       LCD_DrawLabel
;;;475    	LCD_DrawLabel(&FormOLED->Label4);
00003c  6820              LDR      r0,[r4,#0]  ; FormOLED
00003e  3070              ADDS     r0,r0,#0x70
000040  f7fffffe          BL       LCD_DrawLabel
;;;476    	LCD_DrawLabel(&FormOLED->Label6);
000044  6820              LDR      r0,[r4,#0]  ; FormOLED
000046  3098              ADDS     r0,r0,#0x98
000048  f7fffffe          BL       LCD_DrawLabel
;;;477    	LCD_DrawLabel(&FormOLED->Label8);
00004c  6820              LDR      r0,[r4,#0]  ; FormOLED
00004e  30c0              ADDS     r0,r0,#0xc0
000050  f7fffffe          BL       LCD_DrawLabel
;;;478    
;;;479    	/* 按钮 */
;;;480    	LCD_DrawButton(&FormOLED->BtnRet);
000054  6820              LDR      r0,[r4,#0]  ; FormOLED
000056  e8bd4010          POP      {r4,lr}
00005a  30d4              ADDS     r0,r0,#0xd4
00005c  f7ffbffe          B.W      LCD_DrawButton
;;;481    }
;;;482    
                          ENDP

                  |L1.96|
                          DCD      ||.data||

                          AREA ||i.InitFormOLED||, CODE, READONLY, ALIGN=2

                  InitFormOLED PROC
;;;357    */
;;;358    static void InitFormOLED(void)
000000  b5f0              PUSH     {r4-r7,lr}
;;;359    {
;;;360    	/* 分组框标题字体 */
;;;361    	FormOLED->FontBox.FontCode = FC_ST_16;
000002  4848              LDR      r0,|L2.292|
000004  2201              MOVS     r2,#1
;;;362    	FormOLED->FontBox.BackColor = CL_BTN_FACE;	/* 和背景色相同 */
000006  f64e735b          MOV      r3,#0xef5b
00000a  6800              LDR      r0,[r0,#0]            ;361  ; FormOLED
;;;363    	FormOLED->FontBox.FrontColor = CL_BLACK;
00000c  2100              MOVS     r1,#0
;;;364    	FormOLED->FontBox.Space = 0;
;;;365    
;;;366    	/* 字体1 用于静止标签 */
;;;367    	FormOLED->FontBlack.FontCode = FC_ST_16;
;;;368    	FormOLED->FontBlack.BackColor = CL_MASK;		/* 透明色 */
00000e  f6491499          MOV      r4,#0x9999
000012  7602              STRB     r2,[r0,#0x18]         ;361
000014  8383              STRH     r3,[r0,#0x1c]         ;362
000016  8341              STRH     r1,[r0,#0x1a]         ;363
000018  83c1              STRH     r1,[r0,#0x1e]         ;364
00001a  7002              STRB     r2,[r0,#0]            ;367
00001c  8084              STRH     r4,[r0,#4]
;;;369    	FormOLED->FontBlack.FrontColor = CL_BLACK;
00001e  8041              STRH     r1,[r0,#2]
;;;370    	FormOLED->FontBlack.Space = 0;
000020  80c1              STRH     r1,[r0,#6]
;;;371    
;;;372    	/* 字体2 用于变化的文字 */
;;;373    	FormOLED->FontBlue.FontCode = FC_ST_16;
000022  7202              STRB     r2,[r0,#8]
;;;374    	FormOLED->FontBlue.BackColor = CL_BTN_FACE;
000024  8183              STRH     r3,[r0,#0xc]
;;;375    	FormOLED->FontBlue.FrontColor = CL_BLUE;
000026  231f              MOVS     r3,#0x1f
000028  8143              STRH     r3,[r0,#0xa]
;;;376    	FormOLED->FontBlue.Space = 0;
00002a  81c1              STRH     r1,[r0,#0xe]
;;;377    
;;;378    	/* 按钮字体 */
;;;379    	FormOLED->FontBtn.FontCode = FC_ST_16;
00002c  7402              STRB     r2,[r0,#0x10]
;;;380    	FormOLED->FontBtn.BackColor = CL_MASK;		/* 透明背景 */
00002e  8284              STRH     r4,[r0,#0x14]
;;;381    	FormOLED->FontBtn.FrontColor = CL_BLACK;
000030  8241              STRH     r1,[r0,#0x12]
;;;382    	FormOLED->FontBtn.Space = 0;
000032  82c1              STRH     r1,[r0,#0x16]
;;;383    
;;;384    	/* 分组框 */
;;;385    	FormOLED->Box1.Left = BOX1_X;
000034  2205              MOVS     r2,#5
000036  8442              STRH     r2,[r0,#0x22]
;;;386    	FormOLED->Box1.Top = BOX1_Y;
000038  2208              MOVS     r2,#8
00003a  8482              STRH     r2,[r0,#0x24]
;;;387    	FormOLED->Box1.Height = BOX1_H;
00003c  4a3a              LDR      r2,|L2.296|
;;;388    	FormOLED->Box1.Width = BOX1_W;
;;;389    	FormOLED->Box1.pCaption = BOX1_TEXT;
;;;390    	FormOLED->Box1.Font = &FormOLED->FontBox;
;;;391    
;;;392    	/* 静态标签 */
;;;393    	FormOLED->Label1.Left = LABEL1_X;
00003e  250b              MOVS     r5,#0xb
;;;394    	FormOLED->Label1.Top = LABEL1_Y;
;;;395    	FormOLED->Label1.MaxLen = 0;
;;;396    	FormOLED->Label1.pCaption = LABEL1_TEXT;
000040  a641              ADR      r6,|L2.328|
000042  8814              LDRH     r4,[r2,#0]            ;387  ; g_LcdHeight
;;;397    	FormOLED->Label1.Font = &FormOLED->FontBlack;
;;;398    
;;;399    	FormOLED->Label3.Left = LABEL3_X;
;;;400    	FormOLED->Label3.Top = LABEL3_Y;
;;;401    	FormOLED->Label3.MaxLen = 0;
;;;402    	FormOLED->Label3.pCaption = LABEL3_TEXT;
000044  a744              ADR      r7,|L2.344|
000046  f1a40212          SUB      r2,r4,#0x12           ;387
00004a  84c2              STRH     r2,[r0,#0x26]         ;387
00004c  4a37              LDR      r2,|L2.300|
00004e  8813              LDRH     r3,[r2,#0]            ;388  ; g_LcdWidth
000050  f1a3020a          SUB      r2,r3,#0xa            ;388
000054  8502              STRH     r2,[r0,#0x28]         ;388
000056  a236              ADR      r2,|L2.304|
000058  6302              STR      r2,[r0,#0x30]         ;390
00005a  f1000218          ADD      r2,r0,#0x18           ;390
00005e  62c2              STR      r2,[r0,#0x2c]         ;393
000060  86c5              STRH     r5,[r0,#0x36]         ;393
000062  221c              MOVS     r2,#0x1c              ;394
000064  8702              STRH     r2,[r0,#0x38]         ;394
000066  87c1              STRH     r1,[r0,#0x3e]         ;395
000068  e9c00610          STRD     r0,r6,[r0,#0x40]      ;396
00006c  f8a0505e          STRH     r5,[r0,#0x5e]         ;399
000070  2630              MOVS     r6,#0x30              ;400
000072  f8a06060          STRH     r6,[r0,#0x60]         ;400
000076  f8a01066          STRH     r1,[r0,#0x66]         ;401
00007a  e9c0071a          STRD     r0,r7,[r0,#0x68]
;;;403    	FormOLED->Label3.Font = &FormOLED->FontBlack;
;;;404    
;;;405    	FormOLED->Label5.Left = LABEL5_X;
00007e  f8a05086          STRH     r5,[r0,#0x86]
;;;406    	FormOLED->Label5.Top = LABEL5_Y;
000082  2744              MOVS     r7,#0x44
000084  f8a07088          STRH     r7,[r0,#0x88]
;;;407    	FormOLED->Label5.MaxLen = 0;
000088  f8a0108e          STRH     r1,[r0,#0x8e]
;;;408    	FormOLED->Label5.pCaption = LABEL5_TEXT;
00008c  f20f0cd8          ADR      r12,|L2.360|
;;;409    	FormOLED->Label5.Font = &FormOLED->FontBlack;
000090  e9c00c24          STRD     r0,r12,[r0,#0x90]
;;;410    
;;;411    	FormOLED->Label7.Left = LABEL7_X;
000094  f8a050ae          STRH     r5,[r0,#0xae]
;;;412    	FormOLED->Label7.Top = LABEL7_Y;
000098  f04f0c58          MOV      r12,#0x58
00009c  f8a0c0b0          STRH     r12,[r0,#0xb0]
;;;413    	FormOLED->Label7.MaxLen = 0;
0000a0  f8a010b6          STRH     r1,[r0,#0xb6]
;;;414    	FormOLED->Label7.pCaption = LABEL7_TEXT;
0000a4  a534              ADR      r5,|L2.376|
0000a6  e9c0052e          STRD     r0,r5,[r0,#0xb8]
;;;415    	FormOLED->Label7.Font = &FormOLED->FontBlack;
;;;416    
;;;417    	/* 动态标签 */
;;;418    	FormOLED->Label2.Left = LABEL2_X;
0000aa  2592              MOVS     r5,#0x92
0000ac  f8a0504a          STRH     r5,[r0,#0x4a]
;;;419    	FormOLED->Label2.Top = LABEL2_Y;
0000b0  f8a0204c          STRH     r2,[r0,#0x4c]
;;;420    	FormOLED->Label2.MaxLen = 0;
0000b4  f8a01052          STRH     r1,[r0,#0x52]
;;;421    	FormOLED->Label2.pCaption = LABEL2_TEXT;
0000b8  a233              ADR      r2,|L2.392|
;;;422    	FormOLED->Label2.Font = &FormOLED->FontBlue;
0000ba  6582              STR      r2,[r0,#0x58]
0000bc  f1000208          ADD      r2,r0,#8
;;;423    
;;;424    	FormOLED->Label4.Left = LABEL4_X;
0000c0  6542              STR      r2,[r0,#0x54]
0000c2  f8a05072          STRH     r5,[r0,#0x72]
;;;425    	FormOLED->Label4.Top = LABEL4_Y;
0000c6  f8a06074          STRH     r6,[r0,#0x74]
;;;426    	FormOLED->Label4.MaxLen = 0;
0000ca  f8a0107a          STRH     r1,[r0,#0x7a]
;;;427    	FormOLED->Label4.pCaption = LABEL4_TEXT;
0000ce  a633              ADR      r6,|L2.412|
0000d0  e9c0261f          STRD     r2,r6,[r0,#0x7c]
;;;428    	FormOLED->Label4.Font = &FormOLED->FontBlue;
;;;429    
;;;430    	FormOLED->Label6.Left = LABEL6_X;
0000d4  f8a0509a          STRH     r5,[r0,#0x9a]
;;;431    	FormOLED->Label6.Top = LABEL6_Y;
0000d8  f8a0709c          STRH     r7,[r0,#0x9c]
;;;432    	FormOLED->Label6.MaxLen = 0;
0000dc  f8a010a2          STRH     r1,[r0,#0xa2]
;;;433    	FormOLED->Label6.pCaption = LABEL6_TEXT;
0000e0  a632              ADR      r6,|L2.428|
0000e2  e9c02629          STRD     r2,r6,[r0,#0xa4]
;;;434    	FormOLED->Label6.Font = &FormOLED->FontBlue;
;;;435    
;;;436    	FormOLED->Label8.Left = LABEL8_X;
0000e6  f8a050c2          STRH     r5,[r0,#0xc2]
;;;437    	FormOLED->Label8.Top = LABEL8_Y;
0000ea  f8a0c0c4          STRH     r12,[r0,#0xc4]
;;;438    	FormOLED->Label8.MaxLen = 0;
0000ee  f8a010ca          STRH     r1,[r0,#0xca]
;;;439    	FormOLED->Label8.pCaption = LABEL8_TEXT;
0000f2  a532              ADR      r5,|L2.444|
;;;440    	FormOLED->Label8.Font = &FormOLED->FontBlue;
;;;441    
;;;442    	/* 按钮 */
;;;443    	FormOLED->BtnRet.Left = BTN_RET_X;
0000f4  e9c02533          STRD     r2,r5,[r0,#0xcc]
0000f8  3b45              SUBS     r3,r3,#0x45           ;440
0000fa  f8a030d6          STRH     r3,[r0,#0xd6]
0000fe  3c2e              SUBS     r4,r4,#0x2e
;;;444    	FormOLED->BtnRet.Top = BTN_RET_Y;
000100  f8a040d8          STRH     r4,[r0,#0xd8]
;;;445    	FormOLED->BtnRet.Height = BTN_RET_H;
000104  2220              MOVS     r2,#0x20
000106  f8a020da          STRH     r2,[r0,#0xda]
;;;446    	FormOLED->BtnRet.Width = BTN_RET_W;
00010a  223c              MOVS     r2,#0x3c
00010c  f8a020dc          STRH     r2,[r0,#0xdc]
;;;447    	FormOLED->BtnRet.pCaption = BTN_RET_TEXT;
000110  a22b              ADR      r2,|L2.448|
;;;448    	FormOLED->BtnRet.Font = &FormOLED->FontBtn;
000112  f8c020e4          STR      r2,[r0,#0xe4]
000116  f1000210          ADD      r2,r0,#0x10
00011a  f8402fe0          STR      r2,[r0,#0xe0]!
;;;449    	FormOLED->BtnRet.Focus = 0;
00011e  7201              STRB     r1,[r0,#8]
;;;450    }
000120  bdf0              POP      {r4-r7,pc}
;;;451    
                          ENDP

000122  0000              DCW      0x0000
                  |L2.292|
                          DCD      ||.data||
                  |L2.296|
                          DCD      g_LcdHeight
                  |L2.300|
                          DCD      g_LcdWidth
                  |L2.304|
000130  4f4c4544          DCB      "OLED",207,212,202,190,196,163,191,233,178,226,202,212,179
000134  cfd4cabe
000138  c4a3bfe9
00013c  b2e2cad4
000140  b3      
000141  ccd0f200          DCB      204,208,242,0
000145  00                DCB      0
000146  00                DCB      0
000147  00                DCB      0
                  |L2.328|
000148  d2a1b8cb          DCB      210,161,184,203,215,243,161,162,211,210,188,252,": ",0
00014c  d7f3a1a2
000150  d3d2bcfc
000154  3a2000  
000157  00                DCB      0
                  |L2.344|
000158  d2a1b8cb          DCB      210,161,184,203,201,207,161,162,207,194,188,252,": ",0
00015c  c9cfa1a2
000160  cfc2bcfc
000164  3a2000  
000167  00                DCB      0
                  |L2.360|
000168  d2a1b8cb          DCB      210,161,184,203,"OK",188,252,"    : ",0
00016c  4f4bbcfc
000170  20202020
000174  3a2000  
000177  00                DCB      0
                  |L2.376|
000178  b5b1c7b0          DCB      181,177,199,176,215,180,204,172,"    :",0
00017c  d7b4ccac
000180  20202020
000184  3a00    
000186  00                DCB      0
000187  00                DCB      0
                  |L2.392|
000188  c7d0bbbb          DCB      199,208,187,187,"OLED",207,212,202,190,189,231,195,230,0
00018c  4f4c4544
000190  cfd4cabe
000194  bde7c3e6
000198  00      
000199  00                DCB      0
00019a  00                DCB      0
00019b  00                DCB      0
                  |L2.412|
00019c  b5f7bdda          DCB      181,247,189,218,"OLED",182,212,177,200,182,200,0
0001a0  4f4c4544
0001a4  b6d4b1c8
0001a8  b6c800  
0001ab  00                DCB      0
                  |L2.428|
0001ac  c7d0bbbb          DCB      199,208,187,187,207,212,202,190,183,189,207,242,0
0001b0  cfd4cabe
0001b4  b7bdcff2
0001b8  00      
0001b9  00                DCB      0
0001ba  00                DCB      0
0001bb  00                DCB      0
                  |L2.444|
0001bc  383000            DCB      "80",0
0001bf  00                DCB      0
                  |L2.448|
0001c0  b7b5bbd8          DCB      183,181,187,216,0
0001c4  00      
0001c5  00                DCB      0
0001c6  00                DCB      0
0001c7  00                DCB      0

                          AREA ||i.TestOLED||, CODE, READONLY, ALIGN=2

                          REQUIRE _printf_pre_padding
                          REQUIRE _printf_percent
                          REQUIRE _printf_widthprec
                          REQUIRE _printf_d
                          REQUIRE _printf_int_dec
                  TestOLED PROC
;;;101    */
;;;102    void TestOLED(void)
000000  e92d4ff0          PUSH     {r4-r11,lr}
;;;103    {
;;;104    	uint8_t ucKeyCode;		/* 按键代码 */
;;;105    	uint8_t ucTouch;		/* 触摸事件 */
;;;106    	uint8_t fQuit = 0;
;;;107    	int16_t tpX, tpY;
;;;108    	FormOLED_T form;
;;;109    	uint8_t fRefreshTFT;
;;;110    	FONT_T tFont12, tFont16;
;;;111    	uint8_t fRefreshOled;
;;;112    	uint8_t ucItem;
;;;113    	uint8_t ucContrast = 0x80;	/* 对比度 */
;;;114    	uint8_t ucDir = 0;	/* 显示方向, 0 表示正常方向，1表示倒180度 */
;;;115    
;;;116    	FormOLED= &form;
000004  f8dfb374          LDR      r11,|L3.892|
000008  b0cb              SUB      sp,sp,#0x12c          ;103
00000a  2700              MOVS     r7,#0                 ;106
00000c  a907              ADD      r1,sp,#0x1c
00000e  2580              MOVS     r5,#0x80              ;113
000010  46b8              MOV      r8,r7                 ;114
;;;117    	InitFormOLED();
000012  f8cb1000          STR      r1,[r11,#0]  ; FormOLED
000016  f7fffffe          BL       InitFormOLED
;;;118    	DispFormOLED();
00001a  f7fffffe          BL       DispFormOLED
;;;119    
;;;120    	OLED_InitHard();	 /* 初始化OLED硬件 */
00001e  f7fffffe          BL       OLED_InitHard
;;;121    	OLED_ClrScr(0x00);	 /* 清屏，0x00表示黑底； 0xFF 表示白底 */
000022  2000              MOVS     r0,#0
000024  f7fffffe          BL       OLED_ClrScr
;;;122    
;;;123    	/* 设置字体参数 */
;;;124    	{
;;;125    		tFont16.FontCode = FC_ST_16;	/* 字体代码 16点阵 */
;;;126    		tFont16.FrontColor = 1;		/* 字体颜色 0 或 1 */
;;;127    		tFont16.BackColor = 0;		/* 文字背景颜色 0 或 1 */
000028  2100              MOVS     r1,#0
00002a  f04f0901          MOV      r9,#1                 ;125
00002e  f88d9014          STRB     r9,[sp,#0x14]         ;125
000032  f8ad1018          STRH     r1,[sp,#0x18]
;;;128    		tFont16.Space = 0;			/* 文字间距，单位 = 像素 */
;;;129    
;;;130    		tFont12.FontCode = FC_ST_12;	/* 字体代码 12点阵 */
000036  f88d100c          STRB     r1,[sp,#0xc]
;;;131    		tFont12.FrontColor = 1;		/* 字体颜色 0 或 1 */
;;;132    		tFont12.BackColor = 0;		/* 文字背景颜色 0 或 1 */
00003a  f8ad1010          STRH     r1,[sp,#0x10]
00003e  f8ad9016          STRH     r9,[sp,#0x16]         ;126
000042  f8ad101a          STRH     r1,[sp,#0x1a]         ;128
000046  f8ad900e          STRH     r9,[sp,#0xe]          ;131
;;;133    		tFont12.Space = 1;			/* 文字间距，单位 = 像素 */
00004a  f8ad9012          STRH     r9,[sp,#0x12]
;;;134    	}
;;;135    	ucItem = 0;
00004e  460c              MOV      r4,r1
;;;136    	fRefreshOled = 1;
000050  464e              MOV      r6,r9
;;;137    	fRefreshTFT = 1;
000052  46ca              MOV      r10,r9
                  |L3.84|
;;;138    	/* 进入主程序循环体 */
;;;139    	while (fQuit == 0)
;;;140    	{
;;;141    		bsp_Idle();
000054  f7fffffe          BL       bsp_Idle
;;;142    
;;;143    		if (fRefreshTFT)
000058  f1ba0f00          CMP      r10,#0
00005c  d102              BNE      |L3.100|
00005e  e011              B        |L3.132|
                  |L3.96|
000060  f7fffffe          BL       bsp_Idle
                  |L3.100|
;;;144    		{
;;;145    			char buf[32];
;;;146    
;;;147    			fRefreshTFT = 0;
000064  f04f0a00          MOV      r10,#0
;;;148    
;;;149    			sprintf(buf, "第%d页  对比度 = %3d", ucItem + 1, ucContrast);
000068  462b              MOV      r3,r5
00006a  1c62              ADDS     r2,r4,#1
00006c  a1c4              ADR      r1,|L3.896|
00006e  a843              ADD      r0,sp,#0x10c
000070  f7fffffe          BL       __2sprintf
;;;150    
;;;151    			FormOLED->Label8.pCaption = buf;
000074  f8db0000          LDR      r0,[r11,#0]  ; FormOLED
000078  a943              ADD      r1,sp,#0x10c
00007a  f8c010d0          STR      r1,[r0,#0xd0]
00007e  30c0              ADDS     r0,r0,#0xc0
;;;152    			LCD_DrawLabel(&FormOLED->Label8);
000080  f7fffffe          BL       LCD_DrawLabel
                  |L3.132|
;;;153    		}
;;;154    
;;;155    		ucTouch = TOUCH_GetKey(&tpX, &tpY);	/* 读取触摸事件 */
000084  a942              ADD      r1,sp,#0x108
000086  a802              ADD      r0,sp,#8
000088  f7fffffe          BL       TOUCH_GetKey
;;;156    		if (ucTouch != TOUCH_NONE)
00008c  b300              CBZ      r0,|L3.208|
;;;157    		{
;;;158    			switch (ucTouch)
00008e  2801              CMP      r0,#1
000090  d002              BEQ      |L3.152|
000092  2803              CMP      r0,#3
000094  d11c              BNE      |L3.208|
000096  e01e              B        |L3.214|
                  |L3.152|
;;;159    			{
;;;160    				case TOUCH_DOWN:		/* 触笔按下事件 */
;;;161    					if (TOUCH_InRect(tpX, tpY, BTN_RET_X, BTN_RET_Y, BTN_RET_H, BTN_RET_W))
000098  213c              MOVS     r1,#0x3c
00009a  2020              MOVS     r0,#0x20
00009c  e9cd0100          STRD     r0,r1,[sp,#0]
0000a0  48bd              LDR      r0,|L3.920|
0000a2  8800              LDRH     r0,[r0,#0]  ; g_LcdHeight
0000a4  382e              SUBS     r0,r0,#0x2e
0000a6  b283              UXTH     r3,r0
0000a8  48bc              LDR      r0,|L3.924|
0000aa  8800              LDRH     r0,[r0,#0]  ; g_LcdWidth
0000ac  3845              SUBS     r0,r0,#0x45
0000ae  b282              UXTH     r2,r0
0000b0  f8bd0108          LDRH     r0,[sp,#0x108]
0000b4  b281              UXTH     r1,r0
0000b6  f8bd0008          LDRH     r0,[sp,#8]
0000ba  b280              UXTH     r0,r0
0000bc  f7fffffe          BL       TOUCH_InRect
0000c0  b130              CBZ      r0,|L3.208|
;;;162    					{
;;;163    						FormOLED->BtnRet.Focus = 1;
0000c2  f8db0000          LDR      r0,[r11,#0]  ; FormOLED
0000c6  f88090e8          STRB     r9,[r0,#0xe8]
                  |L3.202|
0000ca  30d4              ADDS     r0,r0,#0xd4
;;;164    						LCD_DrawButton(&FormOLED->BtnRet);
0000cc  f7fffffe          BL       LCD_DrawButton
                  |L3.208|
;;;165    					}
;;;166    					break;
;;;167    
;;;168    				case TOUCH_RELEASE:		/* 触笔释放事件 */
;;;169    					if (TOUCH_InRect(tpX, tpY, BTN_RET_X, BTN_RET_Y, BTN_RET_H, BTN_RET_W))
;;;170    					{
;;;171    						FormOLED->BtnRet.Focus = 0;
;;;172    						LCD_DrawButton(&FormOLED->BtnRet);
;;;173    						fQuit = 1;	/* 返回 */
;;;174    					}
;;;175    					else	/* 按钮失去焦点 */
;;;176    					{
;;;177    						FormOLED->BtnRet.Focus = 0;
;;;178    						LCD_DrawButton(&FormOLED->BtnRet);
;;;179    					}
;;;180    					break;
;;;181    			}
;;;182    		}
;;;183    
;;;184    		if (fRefreshOled == 1)
0000d0  2e01              CMP      r6,#1
0000d2  d021              BEQ      |L3.280|
                  |L3.212|
0000d4  e10a              B        |L3.748|
                  |L3.214|
0000d6  213c              MOVS     r1,#0x3c              ;169
0000d8  2020              MOVS     r0,#0x20              ;169
0000da  e9cd0100          STRD     r0,r1,[sp,#0]         ;169
0000de  48ae              LDR      r0,|L3.920|
0000e0  8800              LDRH     r0,[r0,#0]            ;169  ; g_LcdHeight
0000e2  382e              SUBS     r0,r0,#0x2e           ;169
0000e4  b283              UXTH     r3,r0                 ;169
0000e6  48ad              LDR      r0,|L3.924|
0000e8  8800              LDRH     r0,[r0,#0]            ;169  ; g_LcdWidth
0000ea  3845              SUBS     r0,r0,#0x45           ;169
0000ec  b282              UXTH     r2,r0                 ;169
0000ee  f8bd0108          LDRH     r0,[sp,#0x108]        ;169
0000f2  b281              UXTH     r1,r0                 ;169
0000f4  f8bd0008          LDRH     r0,[sp,#8]            ;169
0000f8  b280              UXTH     r0,r0                 ;169
0000fa  f7fffffe          BL       TOUCH_InRect
0000fe  2800              CMP      r0,#0                 ;169
000100  f8db0000          LDR      r0,[r11,#0]           ;177  ; FormOLED
000104  f04f0100          MOV      r1,#0                 ;177
000108  f88010e8          STRB     r1,[r0,#0xe8]         ;177
00010c  d0dd              BEQ      |L3.202|
00010e  30d4              ADDS     r0,r0,#0xd4           ;169
000110  f7fffffe          BL       LCD_DrawButton
000114  2701              MOVS     r7,#1                 ;173
000116  e7db              B        |L3.208|
                  |L3.280|
;;;185    		{
;;;186    			fRefreshOled = 0;
000118  2600              MOVS     r6,#0
;;;187    
;;;188    			switch (ucItem)
00011a  2c07              CMP      r4,#7
00011c  d2da              BCS      |L3.212|
00011e  e8dff004          TBB      [pc,r4]
000122  0420              DCB      0x04,0x20
000124  3c78bee0          DCB      0x3c,0x78,0xbe,0xe0
000128  e200              DCB      0xe2,0x00
;;;189    			{
;;;190    				case 0:
;;;191    					OLED_ClrScr(0);			 /* 清屏，黑底 */
00012a  2000              MOVS     r0,#0
00012c  f7fffffe          BL       OLED_ClrScr
;;;192    					OLED_DrawRect(0, 0, 64, 128, 1);
000130  2100              MOVS     r1,#0
000132  2380              MOVS     r3,#0x80
000134  2240              MOVS     r2,#0x40
000136  4608              MOV      r0,r1
000138  f8cd9000          STR      r9,[sp,#0]
00013c  f7fffffe          BL       OLED_DrawRect
;;;193    					OLED_DispStr(8, 3, "安富莱OLED例程", &tFont16);		/* 在(8,3)坐标处显示一串汉字 */
000140  ab05              ADD      r3,sp,#0x14
000142  a297              ADR      r2,|L3.928|
000144  2103              MOVS     r1,#3
000146  2008              MOVS     r0,#8
000148  f7fffffe          BL       OLED_DispStr
;;;194    					OLED_DispStr(10, 22, "请操作摇杆!", &tFont16);
00014c  ab05              ADD      r3,sp,#0x14
00014e  a298              ADR      r2,|L3.944|
000150  2116              MOVS     r1,#0x16
000152  200a              MOVS     r0,#0xa
000154  f7fffffe          BL       OLED_DispStr
;;;195    					OLED_DispStr(5, 22 + 20, "www.ARMfly.com", &tFont16);
000158  212a              MOVS     r1,#0x2a
00015a  ab05              ADD      r3,sp,#0x14
00015c  a297              ADR      r2,|L3.956|
00015e  2005              MOVS     r0,#5
;;;196    					break;
000160  e018              B        |L3.404|
;;;197    
;;;198    				case 1:
;;;199    					//OLED_StartDraw();	  调用改函数，只刷新缓冲区，不送显示
;;;200    					OLED_ClrScr(0);
000162  2000              MOVS     r0,#0
000164  f7fffffe          BL       OLED_ClrScr
;;;201    					OLED_DispStr(0, 0,  "故人西辞黄鹤楼，", &tFont16);
000168  2100              MOVS     r1,#0
00016a  ab05              ADD      r3,sp,#0x14
00016c  a297              ADR      r2,|L3.972|
00016e  4608              MOV      r0,r1
000170  f7fffffe          BL       OLED_DispStr
;;;202    					OLED_DispStr(0, 16, "烟花三月下扬州。", &tFont16);
000174  ab05              ADD      r3,sp,#0x14
000176  a29a              ADR      r2,|L3.992|
000178  2110              MOVS     r1,#0x10
00017a  2000              MOVS     r0,#0
00017c  f7fffffe          BL       OLED_DispStr
;;;203    					OLED_DispStr(0, 32, "孤帆远影碧空尽，", &tFont16);
000180  ab05              ADD      r3,sp,#0x14
000182  a29c              ADR      r2,|L3.1012|
000184  2120              MOVS     r1,#0x20
000186  2000              MOVS     r0,#0
000188  f7fffffe          BL       OLED_DispStr
;;;204    					OLED_DispStr(0, 48, "唯见长江天际流。", &tFont16);
00018c  ab05              ADD      r3,sp,#0x14
00018e  a29e              ADR      r2,|L3.1032|
000190  2130              MOVS     r1,#0x30
000192  2000              MOVS     r0,#0
                  |L3.404|
000194  f7fffffe          BL       OLED_DispStr
000198  e0a8              B        |L3.748|
;;;205    					//OLED_EndDraw();	  调用改函数，将缓冲区中数据送显示
;;;206    					break;
;;;207    
;;;208    				case 2:
;;;209    					OLED_ClrScr(0);
00019a  2000              MOVS     r0,#0
00019c  f7fffffe          BL       OLED_ClrScr
;;;210    					OLED_DispStr(5, 0,  "《送孟浩然之广陵》", &tFont12);
0001a0  ab03              ADD      r3,sp,#0xc
0001a2  a29e              ADR      r2,|L3.1052|
0001a4  2100              MOVS     r1,#0
0001a6  2005              MOVS     r0,#5
0001a8  f7fffffe          BL       OLED_DispStr
;;;211    					OLED_DispStr(0, 13, "故人西辞黄鹤楼，", &tFont12);
0001ac  ab03              ADD      r3,sp,#0xc
0001ae  a287              ADR      r2,|L3.972|
0001b0  210d              MOVS     r1,#0xd
0001b2  2000              MOVS     r0,#0
0001b4  f7fffffe          BL       OLED_DispStr
;;;212    					OLED_DispStr(0, 26, "烟花三月下扬州。", &tFont12);
0001b8  ab03              ADD      r3,sp,#0xc
0001ba  a289              ADR      r2,|L3.992|
0001bc  211a              MOVS     r1,#0x1a
0001be  2000              MOVS     r0,#0
0001c0  f7fffffe          BL       OLED_DispStr
;;;213    					OLED_DispStr(0, 39, "孤帆远影碧空尽，", &tFont12);
0001c4  ab03              ADD      r3,sp,#0xc
0001c6  a28b              ADR      r2,|L3.1012|
0001c8  2127              MOVS     r1,#0x27
0001ca  2000              MOVS     r0,#0
0001cc  f7fffffe          BL       OLED_DispStr
;;;214    					OLED_DispStr(0, 52, "唯见长江天际流。", &tFont12);
0001d0  ab03              ADD      r3,sp,#0xc
0001d2  a28d              ADR      r2,|L3.1032|
0001d4  2134              MOVS     r1,#0x34
0001d6  2000              MOVS     r0,#0
0001d8  f7fffffe          BL       OLED_DispStr
;;;215    
;;;216    					OLED_DispStr(110, 14, "安", &tFont16);
0001dc  ab05              ADD      r3,sp,#0x14
0001de  a294              ADR      r2,|L3.1072|
0001e0  210e              MOVS     r1,#0xe
0001e2  206e              MOVS     r0,#0x6e
0001e4  f7fffffe          BL       OLED_DispStr
;;;217    					OLED_DispStr(110, 30, "富", &tFont16);
0001e8  ab05              ADD      r3,sp,#0x14
0001ea  a292              ADR      r2,|L3.1076|
0001ec  211e              MOVS     r1,#0x1e
0001ee  206e              MOVS     r0,#0x6e
0001f0  f7fffffe          BL       OLED_DispStr
;;;218    					OLED_DispStr(110, 46, "莱", &tFont16);
0001f4  ab05              ADD      r3,sp,#0x14
0001f6  a290              ADR      r2,|L3.1080|
0001f8  212e              MOVS     r1,#0x2e
0001fa  206e              MOVS     r0,#0x6e
0001fc  f7fffffe          BL       OLED_DispStr
;;;219    					OLED_DrawRect(109,13, 50, 17,1);
000200  2311              MOVS     r3,#0x11
000202  2232              MOVS     r2,#0x32
000204  210d              MOVS     r1,#0xd
000206  206d              MOVS     r0,#0x6d
000208  f8cd9000          STR      r9,[sp,#0]
00020c  f7fffffe          BL       OLED_DrawRect
;;;220    					break;
000210  e06c              B        |L3.748|
;;;221    
;;;222    				case 3:
;;;223    					/* 白底黑字 */
;;;224    					tFont12.FrontColor = 0;		/* 字体颜色 0 或 1 */
000212  2000              MOVS     r0,#0
000214  f8ad000e          STRH     r0,[sp,#0xe]
;;;225    					tFont12.BackColor = 1;		/* 文字背景颜色 0 或 1 */
000218  f8ad9010          STRH     r9,[sp,#0x10]
;;;226    					OLED_ClrScr(0xFF);
00021c  20ff              MOVS     r0,#0xff
00021e  f7fffffe          BL       OLED_ClrScr
;;;227    					OLED_DispStr(5, 0,  "《送孟浩然之广陵》", &tFont12);
000222  ab03              ADD      r3,sp,#0xc
000224  a27d              ADR      r2,|L3.1052|
000226  2100              MOVS     r1,#0
000228  2005              MOVS     r0,#5
00022a  f7fffffe          BL       OLED_DispStr
;;;228    					OLED_DispStr(0, 13, "故人西辞黄鹤楼，", &tFont12);
00022e  ab03              ADD      r3,sp,#0xc
000230  a266              ADR      r2,|L3.972|
000232  210d              MOVS     r1,#0xd
000234  2000              MOVS     r0,#0
000236  f7fffffe          BL       OLED_DispStr
;;;229    					OLED_DispStr(0, 26, "烟花三月下扬州。", &tFont12);
00023a  ab03              ADD      r3,sp,#0xc
00023c  a268              ADR      r2,|L3.992|
00023e  211a              MOVS     r1,#0x1a
000240  2000              MOVS     r0,#0
000242  f7fffffe          BL       OLED_DispStr
;;;230    					OLED_DispStr(0, 39, "孤帆远影碧空尽，", &tFont12);
000246  ab03              ADD      r3,sp,#0xc
000248  a26a              ADR      r2,|L3.1012|
00024a  2127              MOVS     r1,#0x27
00024c  2000              MOVS     r0,#0
00024e  f7fffffe          BL       OLED_DispStr
;;;231    					OLED_DispStr(0, 52, "唯见长江天际流。", &tFont12);
000252  ab03              ADD      r3,sp,#0xc
000254  a26c              ADR      r2,|L3.1032|
000256  2134              MOVS     r1,#0x34
000258  2000              MOVS     r0,#0
00025a  f7fffffe          BL       OLED_DispStr
;;;232    
;;;233    					OLED_DispStr(110, 14, "安", &tFont16);
00025e  ab05              ADD      r3,sp,#0x14
000260  a273              ADR      r2,|L3.1072|
000262  210e              MOVS     r1,#0xe
000264  206e              MOVS     r0,#0x6e
000266  f7fffffe          BL       OLED_DispStr
;;;234    					OLED_DispStr(110, 30, "富", &tFont16);
00026a  ab05              ADD      r3,sp,#0x14
00026c  a271              ADR      r2,|L3.1076|
00026e  211e              MOVS     r1,#0x1e
000270  206e              MOVS     r0,#0x6e
000272  f7fffffe          BL       OLED_DispStr
;;;235    					OLED_DispStr(110, 46, "莱", &tFont16);
000276  ab05              ADD      r3,sp,#0x14
000278  a26f              ADR      r2,|L3.1080|
00027a  212e              MOVS     r1,#0x2e
00027c  206e              MOVS     r0,#0x6e
00027e  f7fffffe          BL       OLED_DispStr
;;;236    					OLED_DrawRect(109,13, 50, 17, 0);
000282  2000              MOVS     r0,#0
000284  9000              STR      r0,[sp,#0]
000286  2311              MOVS     r3,#0x11
000288  2232              MOVS     r2,#0x32
00028a  210d              MOVS     r1,#0xd
00028c  206d              MOVS     r0,#0x6d
00028e  f7fffffe          BL       OLED_DrawRect
;;;237    
;;;238    					/* 恢复黑底白字 */
;;;239    					tFont12.FrontColor = 1;		/* 字体颜色 0 或 1 */
;;;240    					tFont12.BackColor = 0;		/* 文字背景颜色 0 或 1 */
000292  2000              MOVS     r0,#0
000294  f8ad900e          STRH     r9,[sp,#0xe]          ;239
000298  f8ad0010          STRH     r0,[sp,#0x10]
;;;241    					break;
00029c  e026              B        |L3.748|
;;;242    
;;;243    				case 4:
;;;244    					OLED_ClrScr(0);
00029e  2000              MOVS     r0,#0
0002a0  f7fffffe          BL       OLED_ClrScr
;;;245    					OLED_DrawRect(0,0, 10,10,1);	/* 在(0,0)坐标处绘制一个高10宽10的矩形 */
0002a4  230a              MOVS     r3,#0xa
0002a6  2100              MOVS     r1,#0
0002a8  461a              MOV      r2,r3
0002aa  4608              MOV      r0,r1
0002ac  f8cd9000          STR      r9,[sp,#0]
0002b0  f7fffffe          BL       OLED_DrawRect
;;;246    					OLED_DrawRect(10,10, 20,30,1);	/* 在(10,10)坐标处绘制一个高20宽30的矩形 */
0002b4  210a              MOVS     r1,#0xa
0002b6  231e              MOVS     r3,#0x1e
0002b8  2214              MOVS     r2,#0x14
0002ba  4608              MOV      r0,r1
0002bc  f8cd9000          STR      r9,[sp,#0]
0002c0  f7fffffe          BL       OLED_DrawRect
;;;247    					OLED_DrawCircle(64,32,30,1);	/* 在(64,32)绘制半径30的圆 */
0002c4  2301              MOVS     r3,#1
0002c6  221e              MOVS     r2,#0x1e
0002c8  2120              MOVS     r1,#0x20
0002ca  2040              MOVS     r0,#0x40
0002cc  f7fffffe          BL       OLED_DrawCircle
;;;248    					OLED_DrawLine(127,0,0,63,1);	/* 在(127,0) 和 (0,63) 之间绘制一条直线 */
0002d0  2200              MOVS     r2,#0
0002d2  233f              MOVS     r3,#0x3f
0002d4  4611              MOV      r1,r2
0002d6  207f              MOVS     r0,#0x7f
0002d8  f8cd9000          STR      r9,[sp,#0]
0002dc  f7fffffe          BL       OLED_DrawLine
;;;249    					break;
0002e0  e004              B        |L3.748|
;;;250    
;;;251    				case 5:
;;;252    					OLED_ClrScr(0x00);				/* 清屏，黑底 */
0002e2  2000              MOVS     r0,#0
;;;253    					break;
0002e4  e000              B        |L3.744|
;;;254    
;;;255    				case 6:
;;;256    					OLED_ClrScr(0xFF);				/* 清屏，白底 */
0002e6  20ff              MOVS     r0,#0xff
                  |L3.744|
0002e8  f7fffffe          BL       OLED_ClrScr
                  |L3.748|
;;;257    					{
;;;258    						//char buf[32];
;;;259    
;;;260    						//sprintf(buf, "%d", ucContrast);
;;;261    						//OLED_DispStr(10,10,buf,&tFont16);
;;;262    					}
;;;263    					break;
;;;264    			}
;;;265    		}
;;;266    
;;;267    		/* 处理按键事件 */
;;;268    		ucKeyCode = bsp_GetKey();
0002ec  f7fffffe          BL       bsp_GetKey
;;;269    		if (ucKeyCode > 0)
0002f0  b378              CBZ      r0,|L3.850|
;;;270    		{
;;;271    			/* 有键按下 */
;;;272    			switch (ucKeyCode)
0002f2  280d              CMP      r0,#0xd
0002f4  d018              BEQ      |L3.808|
0002f6  dc08              BGT      |L3.778|
0002f8  2801              CMP      r0,#1
0002fa  d036              BEQ      |L3.874|
0002fc  2804              CMP      r0,#4
0002fe  d034              BEQ      |L3.874|
000300  2807              CMP      r0,#7
000302  d032              BEQ      |L3.874|
000304  280a              CMP      r0,#0xa
000306  d130              BNE      |L3.874|
000308  e006              B        |L3.792|
                  |L3.778|
00030a  2810              CMP      r0,#0x10
00030c  d011              BEQ      |L3.818|
00030e  2813              CMP      r0,#0x13
000310  d01a              BEQ      |L3.840|
000312  2816              CMP      r0,#0x16
000314  d129              BNE      |L3.874|
000316  e01f              B        |L3.856|
                  |L3.792|
;;;273    			{
;;;274    				case KEY_DOWN_K1:		/* K1键 */
;;;275    					break;
;;;276    
;;;277    				case KEY_DOWN_K2:		/* K2键按下 */
;;;278    					break;
;;;279    
;;;280    				case KEY_DOWN_K3:		/* K3键按下 */
;;;281    					break;
;;;282    
;;;283    				case JOY_DOWN_U:		/* 摇杆上键按下 */
;;;284    					if (ucContrast < 255)
000318  2dff              CMP      r5,#0xff
00031a  d201              BCS      |L3.800|
00031c  1c6d              ADDS     r5,r5,#1
;;;285    					{
;;;286    						ucContrast++;
00031e  e006              B        |L3.814|
                  |L3.800|
;;;287    					}
;;;288    					OLED_SetContrast(ucContrast);
000320  4628              MOV      r0,r5
000322  f7fffffe          BL       OLED_SetContrast
;;;289    					fRefreshOled = 1;
;;;290    					fRefreshTFT = 1;
;;;291    					break;
000326  e008              B        |L3.826|
                  |L3.808|
;;;292    
;;;293    				case JOY_DOWN_D:		/* 摇杆下键按下 */
;;;294    					if (ucContrast > 0)
000328  2d00              CMP      r5,#0
00032a  d0f9              BEQ      |L3.800|
00032c  1e6d              SUBS     r5,r5,#1
                  |L3.814|
;;;295    					{
;;;296    						ucContrast--;
00032e  b2ed              UXTB     r5,r5
000330  e7f6              B        |L3.800|
                  |L3.818|
;;;297    					}
;;;298    					OLED_SetContrast(ucContrast);
;;;299    					fRefreshOled = 1;
;;;300    					fRefreshTFT = 1;
;;;301    					break;
;;;302    
;;;303    				case JOY_DOWN_L:		/* 摇杆LEFT键按下 */
;;;304    					if (ucItem > 0)
000332  b10c              CBZ      r4,|L3.824|
000334  1e64              SUBS     r4,r4,#1
;;;305    					{
;;;306    						ucItem--;
000336  e00a              B        |L3.846|
                  |L3.824|
;;;307    					}
;;;308    					else
;;;309    					{
;;;310    						ucItem = DEMO_PAGE_COUNT - 1;
000338  2406              MOVS     r4,#6
                  |L3.826|
;;;311    					}
;;;312    					fRefreshOled = 1;
00033a  2601              MOVS     r6,#1
;;;313    					fRefreshTFT = 1;
;;;314    					break;
00033c  2f00              CMP      r7,#0
00033e  f43fae8f          BEQ      |L3.96|
                  |L3.834|
;;;315    
;;;316    				case JOY_DOWN_R:	/* 摇杆RIGHT键按下 */
;;;317    					if (ucItem < DEMO_PAGE_COUNT - 1)
;;;318    					{
;;;319    						ucItem++;
;;;320    					}
;;;321    					else
;;;322    					{
;;;323    						ucItem = 0;
;;;324    					}
;;;325    					fRefreshOled = 1;
;;;326    					fRefreshTFT = 1;
;;;327    					break;
;;;328    
;;;329    				case JOY_DOWN_OK:		/* 摇杆OK键 */
;;;330    					if (ucDir == 0)
;;;331    					{
;;;332    						ucDir = 1;
;;;333    						OLED_SetDir(1);	/* 设置显示方向 */
;;;334    					}
;;;335    					else
;;;336    					{
;;;337    						ucDir = 0;
;;;338    						OLED_SetDir(0);	/* 设置显示方向 */
;;;339    					}
;;;340    					fRefreshOled = 1;
;;;341    					break;
;;;342    
;;;343    				default:
;;;344    					break;
;;;345    			}
;;;346    		}
;;;347    	}
;;;348    }
000342  b04b              ADD      sp,sp,#0x12c
000344  e8bd8ff0          POP      {r4-r11,pc}
                  |L3.840|
000348  2c06              CMP      r4,#6                 ;317
00034a  d203              BCS      |L3.852|
00034c  1c64              ADDS     r4,r4,#1              ;317
                  |L3.846|
00034e  b2e4              UXTB     r4,r4                 ;319
000350  e7f3              B        |L3.826|
                  |L3.850|
000352  e00a              B        |L3.874|
                  |L3.852|
000354  2400              MOVS     r4,#0                 ;323
000356  e7f0              B        |L3.826|
                  |L3.856|
000358  f1b80f00          CMP      r8,#0                 ;330
00035c  d009              BEQ      |L3.882|
00035e  f04f0800          MOV      r8,#0                 ;337
000362  4640              MOV      r0,r8                 ;338
                  |L3.868|
000364  f7fffffe          BL       OLED_SetDir
000368  2601              MOVS     r6,#1                 ;340
                  |L3.874|
00036a  2f00              CMP      r7,#0                 ;139
00036c  f43fae72          BEQ      |L3.84|
000370  e7e7              B        |L3.834|
                  |L3.882|
000372  f04f0801          MOV      r8,#1                 ;332
000376  4640              MOV      r0,r8                 ;333
000378  e7f4              B        |L3.868|
;;;349    
                          ENDP

00037a  0000              DCW      0x0000
                  |L3.892|
                          DCD      ||.data||
                  |L3.896|
000380  b5da2564          DCB      181,218,"%d",210,179,"  ",182,212,177,200,182,200," = %3"
000384  d2b32020
000388  b6d4b1c8
00038c  b6c8203d
000390  202533  
000393  6400              DCB      "d",0
000395  00                DCB      0
000396  00                DCB      0
000397  00                DCB      0
                  |L3.920|
                          DCD      g_LcdHeight
                  |L3.924|
                          DCD      g_LcdWidth
                  |L3.928|
0003a0  b0b2b8bb          DCB      176,178,184,187,192,179,"OLED",192,253,179,204,0
0003a4  c0b34f4c
0003a8  4544c0fd
0003ac  b3cc00  
0003af  00                DCB      0
                  |L3.944|
0003b0  c7ebb2d9          DCB      199,235,178,217,215,247,210,161,184,203,"!",0
0003b4  d7f7d2a1
0003b8  b8cb2100
                  |L3.956|
0003bc  7777772e          DCB      "www.ARMfly.com",0
0003c0  41524d66
0003c4  6c792e63
0003c8  6f6d00  
0003cb  00                DCB      0
                  |L3.972|
0003cc  b9cac8cb          DCB      185,202,200,203,206,247,180,199,187,198,186,215,194,165,163
0003d0  cef7b4c7
0003d4  bbc6bad7
0003d8  c2a5a3  
0003db  ac00              DCB      172,0
0003dd  00                DCB      0
0003de  00                DCB      0
0003df  00                DCB      0
                  |L3.992|
0003e0  d1ccbba8          DCB      209,204,187,168,200,253,212,194,207,194,209,239,214,221,161
0003e4  c8fdd4c2
0003e8  cfc2d1ef
0003ec  d6dda1  
0003ef  a300              DCB      163,0
0003f1  00                DCB      0
0003f2  00                DCB      0
0003f3  00                DCB      0
                  |L3.1012|
0003f4  b9c2b7ab          DCB      185,194,183,171,212,182,211,176,177,204,191,213,190,161,163
0003f8  d4b6d3b0
0003fc  b1ccbfd5
000400  bea1a3  
000403  ac00              DCB      172,0
000405  00                DCB      0
000406  00                DCB      0
000407  00                DCB      0
                  |L3.1032|
000408  cea8bcfb          DCB      206,168,188,251,179,164,189,173,204,236,188,202,193,247,161
00040c  b3a4bdad
000410  ccecbcca
000414  c1f7a1  
000417  a300              DCB      163,0
000419  00                DCB      0
00041a  00                DCB      0
00041b  00                DCB      0
                  |L3.1052|
00041c  a1b6cbcd          DCB      161,182,203,205,195,207,186,198,200,187,214,174,185,227,193
000420  c3cfbac6
000424  c8bbd6ae
000428  b9e3c1  
00042b  eaa1b700          DCB      234,161,183,0
00042f  00                DCB      0
                  |L3.1072|
000430  b0b200            DCB      176,178,0
000433  00                DCB      0
                  |L3.1076|
000434  b8bb00            DCB      184,187,0
000437  00                DCB      0
                  |L3.1080|
000438  c0b300            DCB      192,179,0
00043b  00                DCB      0

                          AREA ||.data||, DATA, ALIGN=2

                  FormOLED
                          DCD      0x00000000

;*** Start embedded assembler ***

#line 1 "..\\..\\User\\app\\src\\oled_test.c"
	AREA ||.rev16_text||, CODE
	THUMB
	EXPORT |__asm___11_oled_test_c_TestOLED____REV16|
#line 114 "..\\..\\Libraries\\CMSIS\\Include\\core_cmInstr.h"
|__asm___11_oled_test_c_TestOLED____REV16| PROC
#line 115

 rev16 r0, r0
 bx lr
	ENDP
	AREA ||.revsh_text||, CODE
	THUMB
	EXPORT |__asm___11_oled_test_c_TestOLED____REVSH|
#line 128
|__asm___11_oled_test_c_TestOLED____REVSH| PROC
#line 129

 revsh r0, r0
 bx lr
	ENDP

;*** End   embedded assembler ***
